target datalayout = "e-m:e-p270:32:32-p271:32:32-p272:64:64-i64:64-i128:128-f80:128-n8:16:32:64-S128"
target triple = "x86_64-pc-linux-gnu"

%struct.List = type { i32, i32, i32, ptr, [0 x %union.ListCell] }
%union.ListCell = type { ptr }
%struct.PredIterInfoData = type { ptr, ptr, ptr, ptr, ptr }
%struct.ScalarArrayOpExpr = type { %struct.Expr, i32, i32, i32, i32, i8, i32, ptr, i32 }
%struct.Expr = type { i32 }
%struct.ArrayExpr = type { %struct.Expr, i32, i32, i32, ptr, i8, i32 }
%struct.OpExpr = type { %struct.Expr, i32, i32, i32, i8, i32, i32, ptr, i32 }
%struct.ArrayExprIterState = type { %struct.OpExpr, ptr }

; Function Attrs: inlinehint nounwind uwtable
define internal ptr @list_head(ptr noundef %0) #2 {
  %2 = alloca ptr, align 8
  store ptr %0, ptr %2, align 8
  %3 = load ptr, ptr %2, align 8
  %4 = icmp ne ptr %3, null
  br i1 %4, label %5, label %10

5:                                                ; preds = %1
  %6 = load ptr, ptr %2, align 8
  %7 = getelementptr inbounds nuw %struct.List, ptr %6, i32 0, i32 3
  %8 = load ptr, ptr %7, align 8
  %9 = getelementptr inbounds %union.ListCell, ptr %8, i64 0
  br label %11

10:                                               ; preds = %1
  br label %11

11:                                               ; preds = %10, %5
  %12 = phi ptr [ %9, %5 ], [ null, %10 ]
  ret ptr %12
}

; Function Attrs: inlinehint nounwind uwtable
define internal ptr @list_nth_cell(ptr noundef %0, i32 noundef %1) #2 {
  %3 = alloca ptr, align 8
  %4 = alloca i32, align 4
  store ptr %0, ptr %3, align 8
  store i32 %1, ptr %4, align 4
  %5 = load ptr, ptr %3, align 8
  %6 = getelementptr inbounds nuw %struct.List, ptr %5, i32 0, i32 3
  %7 = load ptr, ptr %6, align 8
  %8 = load i32, ptr %4, align 4
  %9 = sext i32 %8 to i64
  %10 = getelementptr inbounds %union.ListCell, ptr %7, i64 %9
  ret ptr %10
}

; Function Attrs: nounwind uwtable
define internal void @arrayexpr_startup_fn(ptr noundef %0, ptr noundef %1) #0 {
  %3 = alloca ptr, align 8
  %4 = alloca ptr, align 8
  %5 = alloca ptr, align 8
  %6 = alloca ptr, align 8
  %7 = alloca ptr, align 8
  store ptr %0, ptr %3, align 8
  store ptr %1, ptr %4, align 8
  call void @llvm.lifetime.start.p0(i64 8, ptr %5) #7
  %8 = load ptr, ptr %3, align 8
  store ptr %8, ptr %5, align 8
  call void @llvm.lifetime.start.p0(i64 8, ptr %6) #7
  call void @llvm.lifetime.start.p0(i64 8, ptr %7) #7
  %9 = call ptr @palloc(i64 noundef 56)
  store ptr %9, ptr %6, align 8
  %10 = load ptr, ptr %6, align 8
  %11 = load ptr, ptr %4, align 8
  %12 = getelementptr inbounds nuw %struct.PredIterInfoData, ptr %11, i32 0, i32 0
  store ptr %10, ptr %12, align 8
  %13 = load ptr, ptr %6, align 8
  %14 = getelementptr inbounds nuw %struct.ArrayExprIterState, ptr %13, i32 0, i32 0
  %15 = getelementptr inbounds nuw %struct.OpExpr, ptr %14, i32 0, i32 0
  %16 = getelementptr inbounds nuw %struct.Expr, ptr %15, i32 0, i32 0
  store i32 17, ptr %16, align 8
  %17 = load ptr, ptr %5, align 8
  %18 = getelementptr inbounds nuw %struct.ScalarArrayOpExpr, ptr %17, i32 0, i32 1
  %19 = load i32, ptr %18, align 4
  %20 = load ptr, ptr %6, align 8
  %21 = getelementptr inbounds nuw %struct.ArrayExprIterState, ptr %20, i32 0, i32 0
  %22 = getelementptr inbounds nuw %struct.OpExpr, ptr %21, i32 0, i32 1
  store i32 %19, ptr %22, align 4
  %23 = load ptr, ptr %5, align 8
  %24 = getelementptr inbounds nuw %struct.ScalarArrayOpExpr, ptr %23, i32 0, i32 2
  %25 = load i32, ptr %24, align 8
  %26 = load ptr, ptr %6, align 8
  %27 = getelementptr inbounds nuw %struct.ArrayExprIterState, ptr %26, i32 0, i32 0
  %28 = getelementptr inbounds nuw %struct.OpExpr, ptr %27, i32 0, i32 2
  store i32 %25, ptr %28, align 8
  %29 = load ptr, ptr %6, align 8
  %30 = getelementptr inbounds nuw %struct.ArrayExprIterState, ptr %29, i32 0, i32 0
  %31 = getelementptr inbounds nuw %struct.OpExpr, ptr %30, i32 0, i32 3
  store i32 16, ptr %31, align 4
  %32 = load ptr, ptr %6, align 8
  %33 = getelementptr inbounds nuw %struct.ArrayExprIterState, ptr %32, i32 0, i32 0
  %34 = getelementptr inbounds nuw %struct.OpExpr, ptr %33, i32 0, i32 4
  store i8 0, ptr %34, align 8
  %35 = load ptr, ptr %6, align 8
  %36 = getelementptr inbounds nuw %struct.ArrayExprIterState, ptr %35, i32 0, i32 0
  %37 = getelementptr inbounds nuw %struct.OpExpr, ptr %36, i32 0, i32 5
  store i32 0, ptr %37, align 4
  %38 = load ptr, ptr %5, align 8
  %39 = getelementptr inbounds nuw %struct.ScalarArrayOpExpr, ptr %38, i32 0, i32 6
  %40 = load i32, ptr %39, align 8
  %41 = load ptr, ptr %6, align 8
  %42 = getelementptr inbounds nuw %struct.ArrayExprIterState, ptr %41, i32 0, i32 0
  %43 = getelementptr inbounds nuw %struct.OpExpr, ptr %42, i32 0, i32 6
  store i32 %40, ptr %43, align 8
  %44 = load ptr, ptr %5, align 8
  %45 = getelementptr inbounds nuw %struct.ScalarArrayOpExpr, ptr %44, i32 0, i32 7
  %46 = load ptr, ptr %45, align 8
  %47 = call ptr @list_copy(ptr noundef %46)
  %48 = load ptr, ptr %6, align 8
  %49 = getelementptr inbounds nuw %struct.ArrayExprIterState, ptr %48, i32 0, i32 0
  %50 = getelementptr inbounds nuw %struct.OpExpr, ptr %49, i32 0, i32 7
  store ptr %47, ptr %50, align 8
  %51 = load ptr, ptr %5, align 8
  %52 = getelementptr inbounds nuw %struct.ScalarArrayOpExpr, ptr %51, i32 0, i32 7
  %53 = load ptr, ptr %52, align 8
  %54 = call ptr @list_nth_cell(ptr noundef %53, i32 noundef 1)
  %55 = load ptr, ptr %54, align 8
  store ptr %55, ptr %7, align 8
  %56 = load ptr, ptr %7, align 8
  %57 = getelementptr inbounds nuw %struct.ArrayExpr, ptr %56, i32 0, i32 4
  %58 = load ptr, ptr %57, align 8
  %59 = load ptr, ptr %4, align 8
  %60 = getelementptr inbounds nuw %struct.PredIterInfoData, ptr %59, i32 0, i32 1
  store ptr %58, ptr %60, align 8
  %61 = load ptr, ptr %7, align 8
  %62 = getelementptr inbounds nuw %struct.ArrayExpr, ptr %61, i32 0, i32 4
  %63 = load ptr, ptr %62, align 8
  %64 = call ptr @list_head(ptr noundef %63)
  %65 = load ptr, ptr %6, align 8
  %66 = getelementptr inbounds nuw %struct.ArrayExprIterState, ptr %65, i32 0, i32 1
  store ptr %64, ptr %66, align 8
  call void @llvm.lifetime.end.p0(i64 8, ptr %7) #7
  call void @llvm.lifetime.end.p0(i64 8, ptr %6) #7
  call void @llvm.lifetime.end.p0(i64 8, ptr %5) #7
  ret void
}