; Function Attrs: nounwind uwtable
define internal void @arrayexpr_startup_fn(ptr noundef readonly captures(none) %0, ptr noundef writeonly captures(none) initializes((0, 16)) %1) #0 {
  %3 = tail call ptr @palloc(i64 noundef 56) #7
  store ptr %3, ptr %1, align 8
  store i32 17, ptr %3, align 8
  %4 = getelementptr inbounds nuw i8, ptr %0, i64 4
  %5 = load i32, ptr %4, align 4
  %6 = getelementptr inbounds nuw i8, ptr %3, i64 4
  store i32 %5, ptr %6, align 4
  %7 = getelementptr inbounds nuw i8, ptr %0, i64 8
  %8 = load i32, ptr %7, align 8
  %9 = getelementptr inbounds nuw i8, ptr %3, i64 8
  store i32 %8, ptr %9, align 8
  %10 = getelementptr inbounds nuw i8, ptr %3, i64 12
  store i32 16, ptr %10, align 4
  %11 = getelementptr inbounds nuw i8, ptr %3, i64 16
  store i8 0, ptr %11, align 8
  %12 = getelementptr inbounds nuw i8, ptr %3, i64 20
  store i32 0, ptr %12, align 4
  %13 = getelementptr inbounds nuw i8, ptr %0, i64 24
  %14 = load i32, ptr %13, align 8
  %15 = getelementptr inbounds nuw i8, ptr %3, i64 24
  store i32 %14, ptr %15, align 8
  %16 = getelementptr inbounds nuw i8, ptr %0, i64 32
  %17 = load ptr, ptr %16, align 8
  %18 = tail call ptr @list_copy(ptr noundef %17) #7
  %19 = getelementptr inbounds nuw i8, ptr %3, i64 32
  store ptr %18, ptr %19, align 8
  %20 = load ptr, ptr %16, align 8
  %21 = getelementptr i8, ptr %20, i64 16
  %.val = load ptr, ptr %21, align 8
  %22 = getelementptr inbounds nuw i8, ptr %.val, i64 8
  %23 = load ptr, ptr %22, align 8
  %24 = getelementptr inbounds nuw i8, ptr %23, i64 16
  %25 = load ptr, ptr %24, align 8
  %26 = getelementptr inbounds nuw i8, ptr %1, i64 8
  store ptr %25, ptr %26, align 8
  %.not.i = icmp eq ptr %25, null
  br i1 %.not.i, label %list_head.exit, label %27

27:                                               ; preds = %2
  %28 = getelementptr inbounds nuw i8, ptr %25, i64 16
  %29 = load ptr, ptr %28, align 8
  br label %list_head.exit

list_head.exit:                                   ; preds = %2, %27
  %30 = phi ptr [ %29, %27 ], [ null, %2 ]
  %31 = getelementptr inbounds nuw i8, ptr %3, i64 48
  store ptr %30, ptr %31, align 8
  ret void
}